target datalayout = "e-m:e-p270:32:32-p271:32:32-p272:64:64-i64:64-i128:128-f80:128-n8:16:32:64-S128"
target triple = "x86_64-pc-linux-gnu"

%"class.OpenImageIO::v3_1_0::span.78" = type { ptr, i64 }

; Function Attrs: mustprogress nounwind uwtable
define linkonce_odr noundef float @_ZNSt14numeric_limitsIfE3minEv() #6 comdat align 2 {
  ret float 0x3810000000000000
}

; Function Attrs: mustprogress nounwind uwtable
define linkonce_odr hidden noundef ptr @_ZNK11OpenImageIO6v3_1_04spanIfLm18446744073709551615EE4dataEv(ptr noundef nonnull align 8 dereferenceable(16) %0) #6 comdat align 2 {
  %2 = alloca ptr, align 8
  store ptr %0, ptr %2, align 8, !tbaa !385
  %3 = load ptr, ptr %2, align 8
  %4 = getelementptr inbounds nuw %"class.OpenImageIO::v3_1_0::span.78", ptr %3, i32 0, i32 0
  %5 = load ptr, ptr %4, align 8, !tbaa !389
  ret ptr %5
}

; Function Attrs: inlinehint mustprogress nounwind uwtable
define linkonce_odr noundef nonnull align 4 dereferenceable(4) ptr @_ZSt3minIiERKT_S2_S2_(ptr noundef nonnull align 4 dereferenceable(4) %0, ptr noundef nonnull align 4 dereferenceable(4) %1) #0 comdat {
  %3 = alloca ptr, align 8
  %4 = alloca ptr, align 8
  %5 = alloca ptr, align 8
  store ptr %0, ptr %4, align 8, !tbaa !213
  store ptr %1, ptr %5, align 8, !tbaa !213
  %6 = load ptr, ptr %5, align 8, !tbaa !213
  %7 = load i32, ptr %6, align 4, !tbaa !18
  %8 = load ptr, ptr %4, align 8, !tbaa !213
  %9 = load i32, ptr %8, align 4, !tbaa !18
  %10 = icmp slt i32 %7, %9
  br i1 %10, label %11, label %13

11:                                               ; preds = %2
  %12 = load ptr, ptr %5, align 8, !tbaa !213
  store ptr %12, ptr %3, align 8
  br label %15

13:                                               ; preds = %2
  %14 = load ptr, ptr %4, align 8, !tbaa !213
  store ptr %14, ptr %3, align 8
  br label %15

15:                                               ; preds = %13, %11
  %16 = load ptr, ptr %3, align 8
  ret ptr %16
}

; Function Attrs: mustprogress nounwind uwtable
define linkonce_odr hidden noundef i64 @_ZNK11OpenImageIO6v3_1_04spanIfLm18446744073709551615EE4sizeEv(ptr noundef nonnull align 8 dereferenceable(16) %0) #6 comdat align 2 {
  %2 = alloca ptr, align 8
  store ptr %0, ptr %2, align 8, !tbaa !385
  %3 = load ptr, ptr %2, align 8
  %4 = getelementptr inbounds nuw %"class.OpenImageIO::v3_1_0::span.78", ptr %3, i32 0, i32 1
  %5 = load i64, ptr %4, align 8, !tbaa !387
  ret i64 %5
}

; Function Attrs: mustprogress uwtable
define noundef zeroext i1 @_ZN11OpenImageIO6v3_1_012ImageBufAlgo12colorconvertENS0_4spanIfLm18446744073709551615EEEPKNS0_14ColorProcessorEb(ptr %0, i64 %1, ptr noundef %2, i1 noundef zeroext %3) #7 {
  %5 = alloca i1, align 1
  %6 = alloca %"class.OpenImageIO::v3_1_0::span.78", align 8
  %7 = alloca ptr, align 8
  %8 = alloca i8, align 1
  %9 = alloca [4 x float], align 16
  %10 = alloca i32, align 4
  %11 = alloca i32, align 4
  %12 = alloca i32, align 4
  %13 = alloca float, align 4
  %14 = alloca float, align 4
  %15 = alloca float, align 4
  %16 = getelementptr inbounds nuw { ptr, i64 }, ptr %6, i32 0, i32 0
  store ptr %0, ptr %16, align 8
  %17 = getelementptr inbounds nuw { ptr, i64 }, ptr %6, i32 0, i32 1
  store i64 %1, ptr %17, align 8
  store ptr %2, ptr %7, align 8, !tbaa !320
  %18 = zext i1 %3 to i8
  store i8 %18, ptr %8, align 1, !tbaa !8
  %19 = load ptr, ptr %7, align 8, !tbaa !320
  %20 = icmp ne ptr %19, null
  br i1 %20, label %22, label %21

21:                                               ; preds = %4
  store i1 false, ptr %5, align 1
  br label %100

22:                                               ; preds = %4
  %23 = load ptr, ptr %7, align 8, !tbaa !320
  %24 = load ptr, ptr %23, align 8, !tbaa !118
  %25 = getelementptr inbounds ptr, ptr %24, i64 2
  %26 = load ptr, ptr %25, align 8
  %27 = call noundef zeroext i1 %26(ptr noundef nonnull align 8 dereferenceable(8) %23)
  br i1 %27, label %28, label %29

28:                                               ; preds = %22
  store i1 true, ptr %5, align 1
  br label %100

29:                                               ; preds = %22
  call void @llvm.lifetime.start.p0(i64 16, ptr %9) #5
  call void @llvm.memset.p0.i64(ptr align 16 %9, i8 0, i64 16, i1 false)
  call void @llvm.lifetime.start.p0(i64 4, ptr %10) #5
  call void @llvm.lifetime.start.p0(i64 4, ptr %11) #5
  store i32 4, ptr %11, align 4, !tbaa !18
  call void @llvm.lifetime.start.p0(i64 4, ptr %12) #5
  %30 = call noundef i64 @_ZNK11OpenImageIO6v3_1_04spanIfLm18446744073709551615EE4sizeEv(ptr noundef nonnull align 8 dereferenceable(16) %6) #5
  %31 = trunc i64 %30 to i32
  store i32 %31, ptr %12, align 4, !tbaa !18
  %32 = call noundef nonnull align 4 dereferenceable(4) ptr @_ZSt3minIiERKT_S2_S2_(ptr noundef nonnull align 4 dereferenceable(4) %11, ptr noundef nonnull align 4 dereferenceable(4) %12)
  %33 = load i32, ptr %32, align 4, !tbaa !18
  call void @llvm.lifetime.end.p0(i64 4, ptr %12) #5
  call void @llvm.lifetime.end.p0(i64 4, ptr %11) #5
  store i32 %33, ptr %10, align 4, !tbaa !18
  %34 = getelementptr inbounds [4 x float], ptr %9, i64 0, i64 0
  %35 = call noundef ptr @_ZNK11OpenImageIO6v3_1_04spanIfLm18446744073709551615EE4dataEv(ptr noundef nonnull align 8 dereferenceable(16) %6) #5
  %36 = load i32, ptr %10, align 4, !tbaa !18
  %37 = sext i32 %36 to i64
  %38 = mul i64 %37, 4
  call void @llvm.memcpy.p0.p0.i64(ptr align 16 %34, ptr align 4 %35, i64 %38, i1 false)
  call void @llvm.lifetime.start.p0(i64 4, ptr %13) #5
  %39 = call noundef float @_ZNSt14numeric_limitsIfE3minEv() #5
  store float %39, ptr %13, align 4, !tbaa !384
  %40 = load i32, ptr %10, align 4, !tbaa !18
  %41 = icmp sge i32 %40, 4
  br i1 %41, label %42, label %64

42:                                               ; preds = %29
  %43 = load i8, ptr %8, align 1, !tbaa !8, !range !23, !noundef !24
  %44 = trunc i8 %43 to i1
  br i1 %44, label %45, label %64

45:                                               ; preds = %42
  call void @llvm.lifetime.start.p0(i64 4, ptr %14) #5
  %46 = getelementptr inbounds [4 x float], ptr %9, i64 0, i64 3
  %47 = load float, ptr %46, align 4, !tbaa !384
  store float %47, ptr %14, align 4, !tbaa !384
  %48 = load float, ptr %14, align 4, !tbaa !384
  %49 = fcmp ogt float %48, 0x3810000000000000
  br i1 %49, label %50, label %63

50:                                               ; preds = %45
  %51 = load float, ptr %14, align 4, !tbaa !384
  %52 = getelementptr inbounds [4 x float], ptr %9, i64 0, i64 0
  %53 = load float, ptr %52, align 16, !tbaa !384
  %54 = fdiv float %53, %51
  store float %54, ptr %52, align 16, !tbaa !384
  %55 = load float, ptr %14, align 4, !tbaa !384
  %56 = getelementptr inbounds [4 x float], ptr %9, i64 0, i64 1
  %57 = load float, ptr %56, align 4, !tbaa !384
  %58 = fdiv float %57, %55
  store float %58, ptr %56, align 4, !tbaa !384
  %59 = load float, ptr %14, align 4, !tbaa !384
  %60 = getelementptr inbounds [4 x float], ptr %9, i64 0, i64 2
  %61 = load float, ptr %60, align 8, !tbaa !384
  %62 = fdiv float %61, %59
  store float %62, ptr %60, align 8, !tbaa !384
  br label %63

63:                                               ; preds = %50, %45
  call void @llvm.lifetime.end.p0(i64 4, ptr %14) #5
  br label %64

64:                                               ; preds = %63, %42, %29
  %65 = load ptr, ptr %7, align 8, !tbaa !320
  %66 = getelementptr inbounds [4 x float], ptr %9, i64 0, i64 0
  %67 = load ptr, ptr %65, align 8, !tbaa !118
  %68 = getelementptr inbounds ptr, ptr %67, i64 4
  %69 = load ptr, ptr %68, align 8
  call void %69(ptr noundef nonnull align 8 dereferenceable(8) %65, ptr noundef %66, i32 noundef 1, i32 noundef 1, i32 noundef 4, i64 noundef 4, i64 noundef 16, i64 noundef 16)
  %70 = load i32, ptr %10, align 4, !tbaa !18
  %71 = icmp sge i32 %70, 4
  br i1 %71, label %72, label %94

72:                                               ; preds = %64
  %73 = load i8, ptr %8, align 1, !tbaa !8, !range !23, !noundef !24
  %74 = trunc i8 %73 to i1
  br i1 %74, label %75, label %94

75:                                               ; preds = %72
  call void @llvm.lifetime.start.p0(i64 4, ptr %15) #5
  %76 = getelementptr inbounds [4 x float], ptr %9, i64 0, i64 3
  %77 = load float, ptr %76, align 4, !tbaa !384
  store float %77, ptr %15, align 4, !tbaa !384
  %78 = load float, ptr %15, align 4, !tbaa !384
  %79 = fcmp ogt float %78, 0x3810000000000000
  br i1 %79, label %80, label %93

80:                                               ; preds = %75
  %81 = load float, ptr %15, align 4, !tbaa !384
  %82 = getelementptr inbounds [4 x float], ptr %9, i64 0, i64 0
  %83 = load float, ptr %82, align 16, !tbaa !384
  %84 = fmul float %83, %81
  store float %84, ptr %82, align 16, !tbaa !384
  %85 = load float, ptr %15, align 4, !tbaa !384
  %86 = getelementptr inbounds [4 x float], ptr %9, i64 0, i64 1
  %87 = load float, ptr %86, align 4, !tbaa !384
  %88 = fmul float %87, %85
  store float %88, ptr %86, align 4, !tbaa !384
  %89 = load float, ptr %15, align 4, !tbaa !384
  %90 = getelementptr inbounds [4 x float], ptr %9, i64 0, i64 2
  %91 = load float, ptr %90, align 8, !tbaa !384
  %92 = fmul float %91, %89
  store float %92, ptr %90, align 8, !tbaa !384
  br label %93

93:                                               ; preds = %80, %75
  call void @llvm.lifetime.end.p0(i64 4, ptr %15) #5
  br label %94

94:                                               ; preds = %93, %72, %64
  %95 = call noundef ptr @_ZNK11OpenImageIO6v3_1_04spanIfLm18446744073709551615EE4dataEv(ptr noundef nonnull align 8 dereferenceable(16) %6) #5
  %96 = getelementptr inbounds [4 x float], ptr %9, i64 0, i64 0
  %97 = load i32, ptr %10, align 4, !tbaa !18
  %98 = sext i32 %97 to i64
  %99 = mul i64 %98, 4
  call void @llvm.memcpy.p0.p0.i64(ptr align 4 %95, ptr align 16 %96, i64 %99, i1 false)
  store i1 true, ptr %5, align 1
  call void @llvm.lifetime.end.p0(i64 4, ptr %13) #5
  call void @llvm.lifetime.end.p0(i64 4, ptr %10) #5
  call void @llvm.lifetime.end.p0(i64 16, ptr %9) #5
  br label %100

100:                                              ; preds = %94, %28, %21
  %101 = load i1, ptr %5, align 1
  ret i1 %101
}