; Function Attrs: mustprogress uwtable
define noundef zeroext i1 @_ZN11OpenImageIO6v3_1_012ImageBufAlgo12colorconvertENS0_4spanIfLm18446744073709551615EEEPKNS0_14ColorProcessorEb(ptr captures(none) %0, i64 %1, ptr noundef %2, i1 noundef zeroext %3) local_unnamed_addr #5 {
  %5 = alloca [4 x float], align 16
  %.not = icmp ne ptr %2, null
  br i1 %.not, label %6, label %49

6:                                                ; preds = %4
  %7 = load ptr, ptr %2, align 8, !tbaa !24
  %8 = getelementptr inbounds nuw i8, ptr %7, i64 16
  %9 = load ptr, ptr %8, align 8
  %10 = tail call noundef zeroext i1 %9(ptr noundef nonnull align 8 dereferenceable(8) %2)
  br i1 %10, label %49, label %11

11:                                               ; preds = %6
  call void @llvm.lifetime.start.p0(i64 16, ptr nonnull %5) #34
  call void @llvm.memset.p0.i64(ptr noundef nonnull align 16 dereferenceable(16) %5, i8 0, i64 16, i1 false)
  %12 = trunc i64 %1 to i32
  %.sroa.speculated = tail call i32 @llvm.smin.i32(i32 %12, i32 4)
  %13 = sext i32 %.sroa.speculated to i64
  %14 = shl nsw i64 %13, 2
  call void @llvm.memcpy.p0.p0.i64(ptr nonnull align 16 %5, ptr align 4 %0, i64 %14, i1 false)
  %15 = icmp sgt i32 %12, 3
  %brmerge.not = and i1 %15, %3
  br i1 %brmerge.not, label %16, label %29

16:                                               ; preds = %11
  %17 = getelementptr inbounds nuw i8, ptr %5, i64 12
  %18 = load float, ptr %17, align 4, !tbaa !487
  %19 = fcmp ogt float %18, 0x3810000000000000
  br i1 %19, label %20, label %33

20:                                               ; preds = %16
  %21 = load float, ptr %5, align 16, !tbaa !487
  %22 = fdiv float %21, %18
  store float %22, ptr %5, align 16, !tbaa !487
  %23 = getelementptr inbounds nuw i8, ptr %5, i64 4
  %24 = load float, ptr %23, align 4, !tbaa !487
  %25 = fdiv float %24, %18
  store float %25, ptr %23, align 4, !tbaa !487
  %26 = getelementptr inbounds nuw i8, ptr %5, i64 8
  %27 = load float, ptr %26, align 8, !tbaa !487
  %28 = fdiv float %27, %18
  store float %28, ptr %26, align 8, !tbaa !487
  br label %33

29:                                               ; preds = %11
  %30 = load ptr, ptr %2, align 8, !tbaa !24
  %31 = getelementptr inbounds nuw i8, ptr %30, i64 32
  %32 = load ptr, ptr %31, align 8
  call void %32(ptr noundef nonnull align 8 dereferenceable(8) %2, ptr noundef nonnull %5, i32 noundef 1, i32 noundef 1, i32 noundef 4, i64 noundef 4, i64 noundef 16, i64 noundef 16)
  br label %48

33:                                               ; preds = %16, %20
  %34 = load ptr, ptr %2, align 8, !tbaa !24
  %35 = getelementptr inbounds nuw i8, ptr %34, i64 32
  %36 = load ptr, ptr %35, align 8
  call void %36(ptr noundef nonnull align 8 dereferenceable(8) %2, ptr noundef nonnull %5, i32 noundef 1, i32 noundef 1, i32 noundef 4, i64 noundef 4, i64 noundef 16, i64 noundef 16)
  %37 = load float, ptr %17, align 4, !tbaa !487
  %38 = fcmp ogt float %37, 0x3810000000000000
  br i1 %38, label %39, label %48

39:                                               ; preds = %33
  %40 = load float, ptr %5, align 16, !tbaa !487
  %41 = fmul float %37, %40
  store float %41, ptr %5, align 16, !tbaa !487
  %42 = getelementptr inbounds nuw i8, ptr %5, i64 4
  %43 = load float, ptr %42, align 4, !tbaa !487
  %44 = fmul float %37, %43
  store float %44, ptr %42, align 4, !tbaa !487
  %45 = getelementptr inbounds nuw i8, ptr %5, i64 8
  %46 = load float, ptr %45, align 8, !tbaa !487
  %47 = fmul float %37, %46
  store float %47, ptr %45, align 8, !tbaa !487
  br label %48

48:                                               ; preds = %29, %33, %39
  call void @llvm.memcpy.p0.p0.i64(ptr align 4 %0, ptr nonnull align 16 %5, i64 %14, i1 false)
  call void @llvm.lifetime.end.p0(i64 16, ptr nonnull %5) #34
  br label %49

49:                                               ; preds = %6, %4, %48
  ret i1 %.not
}